; ModuleID = '39/909.c'
source_filename = "39/909.c"
target datalayout = "e-m:e-p270:32:32-p271:32:32-p272:64:64-i64:64-f80:128-n8:16:32:64-S128"
target triple = "x86_64-pc-linux-gnu"

%struct.stu = type { [20 x i8], i8, i8, i32, i32, i32, i32 }

@.str = private unnamed_addr constant [3 x i8] c"%d\00", align 1
@.str.1 = private unnamed_addr constant [3 x i8] c"%s\00", align 1
@.str.2 = private unnamed_addr constant [15 x i8] c"%d %d %c %c %d\00", align 1
@.str.3 = private unnamed_addr constant [10 x i8] c"%s\0A%d\0A%d\0A\00", align 1

; Function Attrs: noinline nounwind uwtable
define dso_local i32 @main() #0 {
  %1 = alloca i32, align 4
  %2 = alloca [100 x %struct.stu], align 16
  %3 = alloca %struct.stu, align 4
  %4 = alloca i32, align 4
  %5 = alloca i32, align 4
  %6 = alloca i32, align 4
  %7 = alloca i32, align 4
  %8 = alloca i32, align 4
  %9 = alloca i8, align 1
  store i32 0, i32* %1, align 4
  store i32 0, i32* %6, align 4
  %10 = call i32 (i8*, ...) @__isoc99_scanf(i8* getelementptr inbounds ([3 x i8], [3 x i8]* @.str, i64 0, i64 0), i32* %4)
  store i32 0, i32* %5, align 4
  br label %11

11:                                               ; preds = %156, %0
  %12 = load i32, i32* %5, align 4
  %13 = load i32, i32* %4, align 4
  %14 = icmp slt i32 %12, %13
  br i1 %14, label %15, label %159

15:                                               ; preds = %11
  %16 = load i32, i32* %5, align 4
  %17 = sext i32 %16 to i64
  %18 = getelementptr inbounds [100 x %struct.stu], [100 x %struct.stu]* %2, i64 0, i64 %17
  %19 = getelementptr inbounds %struct.stu, %struct.stu* %18, i32 0, i32 0
  %20 = getelementptr inbounds [20 x i8], [20 x i8]* %19, i64 0, i64 0
  %21 = call i32 (i8*, ...) @__isoc99_scanf(i8* getelementptr inbounds ([3 x i8], [3 x i8]* @.str.1, i64 0, i64 0), i8* %20)
  %22 = call i32 @getchar()
  %23 = trunc i32 %22 to i8
  store i8 %23, i8* %9, align 1
  %24 = load i32, i32* %5, align 4
  %25 = sext i32 %24 to i64
  %26 = getelementptr inbounds [100 x %struct.stu], [100 x %struct.stu]* %2, i64 0, i64 %25
  %27 = getelementptr inbounds %struct.stu, %struct.stu* %26, i32 0, i32 3
  %28 = load i32, i32* %5, align 4
  %29 = sext i32 %28 to i64
  %30 = getelementptr inbounds [100 x %struct.stu], [100 x %struct.stu]* %2, i64 0, i64 %29
  %31 = getelementptr inbounds %struct.stu, %struct.stu* %30, i32 0, i32 4
  %32 = load i32, i32* %5, align 4
  %33 = sext i32 %32 to i64
  %34 = getelementptr inbounds [100 x %struct.stu], [100 x %struct.stu]* %2, i64 0, i64 %33
  %35 = getelementptr inbounds %struct.stu, %struct.stu* %34, i32 0, i32 1
  %36 = load i32, i32* %5, align 4
  %37 = sext i32 %36 to i64
  %38 = getelementptr inbounds [100 x %struct.stu], [100 x %struct.stu]* %2, i64 0, i64 %37
  %39 = getelementptr inbounds %struct.stu, %struct.stu* %38, i32 0, i32 2
  %40 = load i32, i32* %5, align 4
  %41 = sext i32 %40 to i64
  %42 = getelementptr inbounds [100 x %struct.stu], [100 x %struct.stu]* %2, i64 0, i64 %41
  %43 = getelementptr inbounds %struct.stu, %struct.stu* %42, i32 0, i32 5
  %44 = call i32 (i8*, ...) @__isoc99_scanf(i8* getelementptr inbounds ([15 x i8], [15 x i8]* @.str.2, i64 0, i64 0), i32* %27, i32* %31, i8* %35, i8* %39, i32* %43)
  %45 = load i32, i32* %5, align 4
  %46 = sext i32 %45 to i64
  %47 = getelementptr inbounds [100 x %struct.stu], [100 x %struct.stu]* %2, i64 0, i64 %46
  %48 = getelementptr inbounds %struct.stu, %struct.stu* %47, i32 0, i32 6
  store i32 0, i32* %48, align 4
  %49 = load i32, i32* %5, align 4
  %50 = sext i32 %49 to i64
  %51 = getelementptr inbounds [100 x %struct.stu], [100 x %struct.stu]* %2, i64 0, i64 %50
  %52 = getelementptr inbounds %struct.stu, %struct.stu* %51, i32 0, i32 3
  %53 = load i32, i32* %52, align 8
  %54 = icmp sgt i32 %53, 80
  br i1 %54, label %55, label %69

55:                                               ; preds = %15
  %56 = load i32, i32* %5, align 4
  %57 = sext i32 %56 to i64
  %58 = getelementptr inbounds [100 x %struct.stu], [100 x %struct.stu]* %2, i64 0, i64 %57
  %59 = getelementptr inbounds %struct.stu, %struct.stu* %58, i32 0, i32 5
  %60 = load i32, i32* %59, align 8
  %61 = icmp sge i32 %60, 1
  br i1 %61, label %62, label %69

62:                                               ; preds = %55
  %63 = load i32, i32* %5, align 4
  %64 = sext i32 %63 to i64
  %65 = getelementptr inbounds [100 x %struct.stu], [100 x %struct.stu]* %2, i64 0, i64 %64
  %66 = getelementptr inbounds %struct.stu, %struct.stu* %65, i32 0, i32 6
  %67 = load i32, i32* %66, align 4
  %68 = add nsw i32 %67, 8000
  store i32 %68, i32* %66, align 4
  br label %69

69:                                               ; preds = %62, %55, %15
  %70 = load i32, i32* %5, align 4
  %71 = sext i32 %70 to i64
  %72 = getelementptr inbounds [100 x %struct.stu], [100 x %struct.stu]* %2, i64 0, i64 %71
  %73 = getelementptr inbounds %struct.stu, %struct.stu* %72, i32 0, i32 3
  %74 = load i32, i32* %73, align 8
  %75 = icmp sgt i32 %74, 85
  br i1 %75, label %76, label %90

76:                                               ; preds = %69
  %77 = load i32, i32* %5, align 4
  %78 = sext i32 %77 to i64
  %79 = getelementptr inbounds [100 x %struct.stu], [100 x %struct.stu]* %2, i64 0, i64 %78
  %80 = getelementptr inbounds %struct.stu, %struct.stu* %79, i32 0, i32 4
  %81 = load i32, i32* %80, align 4
  %82 = icmp sgt i32 %81, 80
  br i1 %82, label %83, label %90

83:                                               ; preds = %76
  %84 = load i32, i32* %5, align 4
  %85 = sext i32 %84 to i64
  %86 = getelementptr inbounds [100 x %struct.stu], [100 x %struct.stu]* %2, i64 0, i64 %85
  %87 = getelementptr inbounds %struct.stu, %struct.stu* %86, i32 0, i32 6
  %88 = load i32, i32* %87, align 4
  %89 = add nsw i32 %88, 4000
  store i32 %89, i32* %87, align 4
  br label %90

90:                                               ; preds = %83, %76, %69
  %91 = load i32, i32* %5, align 4
  %92 = sext i32 %91 to i64
  %93 = getelementptr inbounds [100 x %struct.stu], [100 x %struct.stu]* %2, i64 0, i64 %92
  %94 = getelementptr inbounds %struct.stu, %struct.stu* %93, i32 0, i32 3
  %95 = load i32, i32* %94, align 8
  %96 = icmp sgt i32 %95, 90
  br i1 %96, label %97, label %104

97:                                               ; preds = %90
  %98 = load i32, i32* %5, align 4
  %99 = sext i32 %98 to i64
  %100 = getelementptr inbounds [100 x %struct.stu], [100 x %struct.stu]* %2, i64 0, i64 %99
  %101 = getelementptr inbounds %struct.stu, %struct.stu* %100, i32 0, i32 6
  %102 = load i32, i32* %101, align 4
  %103 = add nsw i32 %102, 2000
  store i32 %103, i32* %101, align 4
  br label %104

104:                                              ; preds = %97, %90
  %105 = load i32, i32* %5, align 4
  %106 = sext i32 %105 to i64
  %107 = getelementptr inbounds [100 x %struct.stu], [100 x %struct.stu]* %2, i64 0, i64 %106
  %108 = getelementptr inbounds %struct.stu, %struct.stu* %107, i32 0, i32 3
  %109 = load i32, i32* %108, align 8
  %110 = icmp sgt i32 %109, 85
  br i1 %110, label %111, label %126

111:                                              ; preds = %104
  %112 = load i32, i32* %5, align 4
  %113 = sext i32 %112 to i64
  %114 = getelementptr inbounds [100 x %struct.stu], [100 x %struct.stu]* %2, i64 0, i64 %113
  %115 = getelementptr inbounds %struct.stu, %struct.stu* %114, i32 0, i32 2
  %116 = load i8, i8* %115, align 1
  %117 = sext i8 %116 to i32
  %118 = icmp eq i32 %117, 89
  br i1 %118, label %119, label %126

119:                                              ; preds = %111
  %120 = load i32, i32* %5, align 4
  %121 = sext i32 %120 to i64
  %122 = getelementptr inbounds [100 x %struct.stu], [100 x %struct.stu]* %2, i64 0, i64 %121
  %123 = getelementptr inbounds %struct.stu, %struct.stu* %122, i32 0, i32 6
  %124 = load i32, i32* %123, align 4
  %125 = add nsw i32 %124, 1000
  store i32 %125, i32* %123, align 4
  br label %126

126:                                              ; preds = %119, %111, %104
  %127 = load i32, i32* %5, align 4
  %128 = sext i32 %127 to i64
  %129 = getelementptr inbounds [100 x %struct.stu], [100 x %struct.stu]* %2, i64 0, i64 %128
  %130 = getelementptr inbounds %struct.stu, %struct.stu* %129, i32 0, i32 4
  %131 = load i32, i32* %130, align 4
  %132 = icmp sgt i32 %131, 80
  br i1 %132, label %133, label %148

133:                                              ; preds = %126
  %134 = load i32, i32* %5, align 4
  %135 = sext i32 %134 to i64
  %136 = getelementptr inbounds [100 x %struct.stu], [100 x %struct.stu]* %2, i64 0, i64 %135
  %137 = getelementptr inbounds %struct.stu, %struct.stu* %136, i32 0, i32 1
  %138 = load i8, i8* %137, align 4
  %139 = sext i8 %138 to i32
  %140 = icmp eq i32 %139, 89
  br i1 %140, label %141, label %148

141:                                              ; preds = %133
  %142 = load i32, i32* %5, align 4
  %143 = sext i32 %142 to i64
  %144 = getelementptr inbounds [100 x %struct.stu], [100 x %struct.stu]* %2, i64 0, i64 %143
  %145 = getelementptr inbounds %struct.stu, %struct.stu* %144, i32 0, i32 6
  %146 = load i32, i32* %145, align 4
  %147 = add nsw i32 %146, 850
  store i32 %147, i32* %145, align 4
  br label %148

148:                                              ; preds = %141, %133, %126
  %149 = load i32, i32* %5, align 4
  %150 = sext i32 %149 to i64
  %151 = getelementptr inbounds [100 x %struct.stu], [100 x %struct.stu]* %2, i64 0, i64 %150
  %152 = getelementptr inbounds %struct.stu, %struct.stu* %151, i32 0, i32 6
  %153 = load i32, i32* %152, align 4
  %154 = load i32, i32* %6, align 4
  %155 = add nsw i32 %154, %153
  store i32 %155, i32* %6, align 4
  br label %156

156:                                              ; preds = %148
  %157 = load i32, i32* %5, align 4
  %158 = add nsw i32 %157, 1
  store i32 %158, i32* %5, align 4
  br label %11

159:                                              ; preds = %11
  store i32 1, i32* %7, align 4
  br label %160

160:                                              ; preds = %210, %159
  %161 = load i32, i32* %7, align 4
  %162 = load i32, i32* %4, align 4
  %163 = icmp sle i32 %161, %162
  br i1 %163, label %164, label %213

164:                                              ; preds = %160
  store i32 0, i32* %8, align 4
  br label %165

165:                                              ; preds = %206, %164
  %166 = load i32, i32* %8, align 4
  %167 = load i32, i32* %4, align 4
  %168 = load i32, i32* %7, align 4
  %169 = sub nsw i32 %167, %168
  %170 = icmp slt i32 %166, %169
  br i1 %170, label %171, label %209

171:                                              ; preds = %165
  %172 = load i32, i32* %8, align 4
  %173 = sext i32 %172 to i64
  %174 = getelementptr inbounds [100 x %struct.stu], [100 x %struct.stu]* %2, i64 0, i64 %173
  %175 = getelementptr inbounds %struct.stu, %struct.stu* %174, i32 0, i32 6
  %176 = load i32, i32* %175, align 4
  %177 = load i32, i32* %8, align 4
  %178 = add nsw i32 %177, 1
  %179 = sext i32 %178 to i64
  %180 = getelementptr inbounds [100 x %struct.stu], [100 x %struct.stu]* %2, i64 0, i64 %179
  %181 = getelementptr inbounds %struct.stu, %struct.stu* %180, i32 0, i32 6
  %182 = load i32, i32* %181, align 4
  %183 = icmp slt i32 %176, %182
  br i1 %183, label %184, label %205

184:                                              ; preds = %171
  %185 = load i32, i32* %8, align 4
  %186 = sext i32 %185 to i64
  %187 = getelementptr inbounds [100 x %struct.stu], [100 x %struct.stu]* %2, i64 0, i64 %186
  %188 = bitcast %struct.stu* %3 to i8*
  %189 = bitcast %struct.stu* %187 to i8*
  call void @llvm.memcpy.p0i8.p0i8.i64(i8* align 4 %188, i8* align 8 %189, i64 40, i1 false)
  %190 = load i32, i32* %8, align 4
  %191 = sext i32 %190 to i64
  %192 = getelementptr inbounds [100 x %struct.stu], [100 x %struct.stu]* %2, i64 0, i64 %191
  %193 = load i32, i32* %8, align 4
  %194 = add nsw i32 %193, 1
  %195 = sext i32 %194 to i64
  %196 = getelementptr inbounds [100 x %struct.stu], [100 x %struct.stu]* %2, i64 0, i64 %195
  %197 = bitcast %struct.stu* %192 to i8*
  %198 = bitcast %struct.stu* %196 to i8*
  call void @llvm.memcpy.p0i8.p0i8.i64(i8* align 8 %197, i8* align 8 %198, i64 40, i1 false)
  %199 = load i32, i32* %8, align 4
  %200 = add nsw i32 %199, 1
  %201 = sext i32 %200 to i64
  %202 = getelementptr inbounds [100 x %struct.stu], [100 x %struct.stu]* %2, i64 0, i64 %201
  %203 = bitcast %struct.stu* %202 to i8*
  %204 = bitcast %struct.stu* %3 to i8*
  call void @llvm.memcpy.p0i8.p0i8.i64(i8* align 8 %203, i8* align 4 %204, i64 40, i1 false)
  br label %205

205:                                              ; preds = %184, %171
  br label %206

206:                                              ; preds = %205
  %207 = load i32, i32* %8, align 4
  %208 = add nsw i32 %207, 1
  store i32 %208, i32* %8, align 4
  br label %165

209:                                              ; preds = %165
  br label %210

210:                                              ; preds = %209
  %211 = load i32, i32* %7, align 4
  %212 = add nsw i32 %211, 1
  store i32 %212, i32* %7, align 4
  br label %160

213:                                              ; preds = %160
  %214 = getelementptr inbounds [100 x %struct.stu], [100 x %struct.stu]* %2, i64 0, i64 0
  %215 = getelementptr inbounds %struct.stu, %struct.stu* %214, i32 0, i32 0
  %216 = getelementptr inbounds [20 x i8], [20 x i8]* %215, i64 0, i64 0
  %217 = getelementptr inbounds [100 x %struct.stu], [100 x %struct.stu]* %2, i64 0, i64 0
  %218 = getelementptr inbounds %struct.stu, %struct.stu* %217, i32 0, i32 6
  %219 = load i32, i32* %218, align 4
  %220 = load i32, i32* %6, align 4
  %221 = call i32 (i8*, ...) @printf(i8* getelementptr inbounds ([10 x i8], [10 x i8]* @.str.3, i64 0, i64 0), i8* %216, i32 %219, i32 %220)
  ret i32 0
}

declare dso_local i32 @__isoc99_scanf(i8*, ...) #1

declare dso_local i32 @getchar() #1

; Function Attrs: argmemonly nounwind willreturn
declare void @llvm.memcpy.p0i8.p0i8.i64(i8* noalias nocapture writeonly, i8* noalias nocapture readonly, i64, i1 immarg) #2

declare dso_local i32 @printf(i8*, ...) #1


!llvm.module.flags = !{!0}
!llvm.ident = !{!1}

!0 = !{i32 1, !"wchar_size", i32 4}
!1 = !{!"clang version 10.0.0-4ubuntu1 "}
