; ModuleID = 'source-C-CXX/38/909.c'
source_filename = "source-C-CXX/38/909.c"
target datalayout = "e-m:e-p270:32:32-p271:32:32-p272:64:64-i64:64-f80:128-n8:16:32:64-S128"
target triple = "x86_64-pc-linux-gnu"

%struct._IO_FILE = type { i32, i8*, i8*, i8*, i8*, i8*, i8*, i8*, i8*, i8*, i8*, i8*, %struct._IO_marker*, %struct._IO_FILE*, i32, i32, i64, i16, i8, [1 x i8], i8*, i64, %struct._IO_codecvt*, %struct._IO_wide_data*, %struct._IO_FILE*, i8*, i64, i32, [20 x i8] }
%struct._IO_marker = type opaque
%struct._IO_codecvt = type opaque
%struct._IO_wide_data = type opaque
%struct.stu = type { [20 x i8], i8, i8, i32, i32, i32, i32 }

@.str = private unnamed_addr constant [3 x i8] c"%d\00", align 1
@.str.1 = private unnamed_addr constant [3 x i8] c"%s\00", align 1
@.str.2 = private unnamed_addr constant [15 x i8] c"%d %d %c %c %d\00", align 1
@.str.3 = private unnamed_addr constant [10 x i8] c"%s\0A%d\0A%d\0A\00", align 1
@stdin = external local_unnamed_addr global %struct._IO_FILE*, align 8

; Function Attrs: nofree nounwind sspstrong uwtable
define dso_local i32 @main() local_unnamed_addr #0 {
  %1 = alloca [100 x %struct.stu], align 16
  %2 = alloca %struct.stu, align 4
  %3 = alloca i32, align 4
  %4 = getelementptr inbounds [100 x %struct.stu], [100 x %struct.stu]* %1, i64 0, i64 0, i32 0, i64 0
  call void @llvm.lifetime.start.p0i8(i64 4000, i8* nonnull %4) #4
  %5 = getelementptr inbounds %struct.stu, %struct.stu* %2, i64 0, i32 0, i64 0
  call void @llvm.lifetime.start.p0i8(i64 40, i8* nonnull %5)
  %6 = bitcast i32* %3 to i8*
  call void @llvm.lifetime.start.p0i8(i64 4, i8* nonnull %6) #4
  %7 = call i32 (i8*, ...) @__isoc99_scanf(i8* getelementptr inbounds ([3 x i8], [3 x i8]* @.str, i64 0, i64 0), i32* nonnull %3)
  %8 = load i32, i32* %3, align 4, !tbaa !5
  %9 = icmp sgt i32 %8, 0
  br i1 %9, label %12, label %89

10:                                               ; preds = %59
  %11 = icmp slt i32 %63, 1
  br i1 %11, label %89, label %66

12:                                               ; preds = %0, %59
  %13 = phi i64 [ %62, %59 ], [ 0, %0 ]
  %14 = phi i32 [ %61, %59 ], [ 0, %0 ]
  %15 = getelementptr inbounds [100 x %struct.stu], [100 x %struct.stu]* %1, i64 0, i64 %13, i32 0, i64 0
  %16 = call i32 (i8*, ...) @__isoc99_scanf(i8* getelementptr inbounds ([3 x i8], [3 x i8]* @.str.1, i64 0, i64 0), i8* nonnull %15)
  %17 = load %struct._IO_FILE*, %struct._IO_FILE** @stdin, align 8, !tbaa !9
  %18 = call i32 @getc(%struct._IO_FILE* %17) #4
  %19 = getelementptr inbounds [100 x %struct.stu], [100 x %struct.stu]* %1, i64 0, i64 %13, i32 3
  %20 = getelementptr inbounds [100 x %struct.stu], [100 x %struct.stu]* %1, i64 0, i64 %13, i32 4
  %21 = getelementptr inbounds [100 x %struct.stu], [100 x %struct.stu]* %1, i64 0, i64 %13, i32 1
  %22 = getelementptr inbounds [100 x %struct.stu], [100 x %struct.stu]* %1, i64 0, i64 %13, i32 2
  %23 = getelementptr inbounds [100 x %struct.stu], [100 x %struct.stu]* %1, i64 0, i64 %13, i32 5
  %24 = call i32 (i8*, ...) @__isoc99_scanf(i8* getelementptr inbounds ([15 x i8], [15 x i8]* @.str.2, i64 0, i64 0), i32* nonnull %19, i32* nonnull %20, i8* nonnull %21, i8* nonnull %22, i32* nonnull %23)
  %25 = getelementptr inbounds [100 x %struct.stu], [100 x %struct.stu]* %1, i64 0, i64 %13, i32 6
  store i32 0, i32* %25, align 4, !tbaa !11
  %26 = load i32, i32* %19, align 8, !tbaa !13
  %27 = icmp sgt i32 %26, 80
  br i1 %27, label %28, label %50

28:                                               ; preds = %12
  %29 = load i32, i32* %23, align 8, !tbaa !14
  %30 = icmp sgt i32 %29, 0
  br i1 %30, label %31, label %32

31:                                               ; preds = %28
  store i32 8000, i32* %25, align 4, !tbaa !11
  br label %32

32:                                               ; preds = %31, %28
  %33 = phi i32 [ 8000, %31 ], [ 0, %28 ]
  %34 = icmp sgt i32 %26, 85
  br i1 %34, label %35, label %50

35:                                               ; preds = %32
  %36 = load i32, i32* %20, align 4, !tbaa !15
  %37 = icmp sgt i32 %36, 80
  %38 = add nuw nsw i32 %33, 4000
  %39 = select i1 %37, i32 %38, i32 %33
  %40 = icmp sgt i32 %26, 90
  %41 = add nuw nsw i32 %39, 2000
  %42 = select i1 %40, i32 %41, i32 %39
  %43 = or i1 %37, %40
  br i1 %43, label %44, label %45

44:                                               ; preds = %35
  store i32 %42, i32* %25, align 4, !tbaa !11
  br label %45

45:                                               ; preds = %35, %44
  %46 = load i8, i8* %22, align 1, !tbaa !16
  %47 = icmp eq i8 %46, 89
  br i1 %47, label %48, label %50

48:                                               ; preds = %45
  %49 = add nuw nsw i32 %42, 1000
  store i32 %49, i32* %25, align 4, !tbaa !11
  br label %50

50:                                               ; preds = %32, %12, %48, %45
  %51 = phi i32 [ %33, %32 ], [ 0, %12 ], [ %49, %48 ], [ %42, %45 ]
  %52 = load i32, i32* %20, align 4, !tbaa !15
  %53 = icmp sgt i32 %52, 80
  br i1 %53, label %54, label %59

54:                                               ; preds = %50
  %55 = load i8, i8* %21, align 4, !tbaa !17
  %56 = icmp eq i8 %55, 89
  br i1 %56, label %57, label %59

57:                                               ; preds = %54
  %58 = add nuw nsw i32 %51, 850
  store i32 %58, i32* %25, align 4, !tbaa !11
  br label %59

59:                                               ; preds = %57, %54, %50
  %60 = phi i32 [ %58, %57 ], [ %51, %54 ], [ %51, %50 ]
  %61 = add nsw i32 %60, %14
  %62 = add nuw nsw i64 %13, 1
  %63 = load i32, i32* %3, align 4, !tbaa !5
  %64 = sext i32 %63 to i64
  %65 = icmp slt i64 %62, %64
  br i1 %65, label %12, label %10, !llvm.loop !18

66:                                               ; preds = %10, %86
  %67 = phi i32 [ %69, %86 ], [ %63, %10 ]
  %68 = phi i32 [ %87, %86 ], [ 1, %10 ]
  %69 = add i32 %67, -1
  %70 = icmp sgt i32 %63, %68
  br i1 %70, label %71, label %86

71:                                               ; preds = %66
  %72 = zext i32 %69 to i64
  br label %73

73:                                               ; preds = %71, %84
  %74 = phi i64 [ 0, %71 ], [ %77, %84 ]
  %75 = getelementptr inbounds [100 x %struct.stu], [100 x %struct.stu]* %1, i64 0, i64 %74, i32 6
  %76 = load i32, i32* %75, align 4, !tbaa !11
  %77 = add nuw nsw i64 %74, 1
  %78 = getelementptr inbounds [100 x %struct.stu], [100 x %struct.stu]* %1, i64 0, i64 %77, i32 6
  %79 = load i32, i32* %78, align 4, !tbaa !11
  %80 = icmp slt i32 %76, %79
  br i1 %80, label %81, label %84

81:                                               ; preds = %73
  %82 = getelementptr inbounds [100 x %struct.stu], [100 x %struct.stu]* %1, i64 0, i64 %74, i32 0, i64 0
  call void @llvm.memcpy.p0i8.p0i8.i64(i8* noundef nonnull align 4 dereferenceable(40) %5, i8* noundef nonnull align 8 dereferenceable(40) %82, i64 40, i1 false), !tbaa.struct !20
  %83 = getelementptr inbounds [100 x %struct.stu], [100 x %struct.stu]* %1, i64 0, i64 %77, i32 0, i64 0
  call void @llvm.memcpy.p0i8.p0i8.i64(i8* noundef nonnull align 8 dereferenceable(40) %82, i8* noundef nonnull align 8 dereferenceable(40) %83, i64 40, i1 false), !tbaa.struct !20
  call void @llvm.memcpy.p0i8.p0i8.i64(i8* noundef nonnull align 8 dereferenceable(40) %83, i8* noundef nonnull align 4 dereferenceable(40) %5, i64 40, i1 false), !tbaa.struct !20
  br label %84

84:                                               ; preds = %73, %81
  %85 = icmp eq i64 %77, %72
  br i1 %85, label %86, label %73, !llvm.loop !22

86:                                               ; preds = %84, %66
  %87 = add nuw i32 %68, 1
  %88 = icmp eq i32 %68, %63
  br i1 %88, label %89, label %66, !llvm.loop !23

89:                                               ; preds = %86, %0, %10
  %90 = phi i32 [ %61, %10 ], [ 0, %0 ], [ %61, %86 ]
  %91 = getelementptr inbounds [100 x %struct.stu], [100 x %struct.stu]* %1, i64 0, i64 0, i32 6
  %92 = load i32, i32* %91, align 4, !tbaa !11
  %93 = call i32 (i8*, ...) @printf(i8* nonnull dereferenceable(1) getelementptr inbounds ([10 x i8], [10 x i8]* @.str.3, i64 0, i64 0), i8* nonnull %4, i32 %92, i32 %90)
  call void @llvm.lifetime.end.p0i8(i64 4, i8* nonnull %6) #4
  call void @llvm.lifetime.end.p0i8(i64 40, i8* nonnull %5)
  call void @llvm.lifetime.end.p0i8(i64 4000, i8* nonnull %4) #4
  ret i32 0
}

; Function Attrs: argmemonly mustprogress nofree nosync nounwind willreturn
declare void @llvm.lifetime.start.p0i8(i64 immarg, i8* nocapture) #1

; Function Attrs: nofree nounwind
declare noundef i32 @__isoc99_scanf(i8* nocapture noundef readonly, ...) local_unnamed_addr #2

; Function Attrs: argmemonly mustprogress nofree nounwind willreturn
declare void @llvm.memcpy.p0i8.p0i8.i64(i8* noalias nocapture writeonly, i8* noalias nocapture readonly, i64, i1 immarg) #3

; Function Attrs: nofree nounwind
declare noundef i32 @printf(i8* nocapture noundef readonly, ...) local_unnamed_addr #2

; Function Attrs: argmemonly mustprogress nofree nosync nounwind willreturn
declare void @llvm.lifetime.end.p0i8(i64 immarg, i8* nocapture) #1

; Function Attrs: nofree nounwind
declare noundef i32 @getc(%struct._IO_FILE* nocapture noundef) local_unnamed_addr #2


!llvm.module.flags = !{!0, !1, !2, !3}
!llvm.ident = !{!4}

!0 = !{i32 1, !"wchar_size", i32 4}
!1 = !{i32 7, !"PIC Level", i32 2}
!2 = !{i32 7, !"PIE Level", i32 2}
!3 = !{i32 7, !"uwtable", i32 1}
!4 = !{!"clang version 13.0.0"}
!5 = !{!6, !6, i64 0}
!6 = !{!"int", !7, i64 0}
!7 = !{!"omnipotent char", !8, i64 0}
!8 = !{!"Simple C/C++ TBAA"}
!9 = !{!10, !10, i64 0}
!10 = !{!"any pointer", !7, i64 0}
!11 = !{!12, !6, i64 36}
!12 = !{!"stu", !7, i64 0, !7, i64 20, !7, i64 21, !6, i64 24, !6, i64 28, !6, i64 32, !6, i64 36}
!13 = !{!12, !6, i64 24}
!14 = !{!12, !6, i64 32}
!15 = !{!12, !6, i64 28}
!16 = !{!12, !7, i64 21}
!17 = !{!12, !7, i64 20}
!18 = distinct !{!18, !19}
!19 = !{!"llvm.loop.mustprogress"}
!20 = !{i64 0, i64 20, !21, i64 20, i64 1, !21, i64 21, i64 1, !21, i64 24, i64 4, !5, i64 28, i64 4, !5, i64 32, i64 4, !5, i64 36, i64 4, !5}
!21 = !{!7, !7, i64 0}
!22 = distinct !{!22, !19}
!23 = distinct !{!23, !19}
